target datalayout = "e-m:e-p270:32:32-p271:32:32-p272:64:64-i64:64-i128:128-f80:128-n8:16:32:64-S128"
target triple = "x86_64-unknown-linux-gnu"

%struct.stat = type { i64, i64, i64, i32, i32, i32, i32, i64, i64, i64, i64, %struct.timespec, %struct.timespec, %struct.timespec, [3 x i64] }
%struct.timespec = type { i64, i64 }

; Function Attrs: mustprogress nounwind uwtable
define noundef zeroext i1 @_ZN7httplib6detail6is_dirERKNSt7__cxx1112basic_stringIcSt11char_traitsIcESaIcEEE(ptr noundef nonnull align 8 dereferenceable(32) %path) #4 {
entry:
  %path.addr = alloca ptr, align 8
  %st = alloca %struct.stat, align 8
  store ptr %path, ptr %path.addr, align 8
  %0 = load ptr, ptr %path.addr, align 8
  %call = call noundef ptr @_ZNKSt7__cxx1112basic_stringIcSt11char_traitsIcESaIcEE5c_strEv(ptr noundef nonnull align 8 dereferenceable(32) %0) #3
  %call1 = call i32 @stat(ptr noundef %call, ptr noundef %st) #3
  %cmp = icmp sge i32 %call1, 0
  br i1 %cmp, label %land.rhs, label %land.end

land.rhs:                                         ; preds = %entry
  %st_mode = getelementptr inbounds %struct.stat, ptr %st, i32 0, i32 3
  %1 = load i32, ptr %st_mode, align 8
  %and = and i32 %1, 61440
  %cmp2 = icmp eq i32 %and, 16384
  br label %land.end

land.end:                                         ; preds = %land.rhs, %entry
  %2 = phi i1 [ false, %entry ], [ %cmp2, %land.rhs ]
  ret i1 %2
}