; Function Attrs: mustprogress nounwind uwtable
define noundef zeroext i1 @_ZN7httplib6detail6is_dirERKNSt7__cxx1112basic_stringIcSt11char_traitsIcESaIcEEE(ptr noundef nonnull align 8 dereferenceable(32) %path) local_unnamed_addr #4 {
entry:
  %st = alloca %struct.stat, align 8
  %call = tail call noundef ptr @_ZNKSt7__cxx1112basic_stringIcSt11char_traitsIcESaIcEE5c_strEv(ptr noundef nonnull align 8 dereferenceable(32) %path) #37
  %call1 = call i32 @stat(ptr noundef %call, ptr noundef nonnull %st) #37
  %cmp = icmp sgt i32 %call1, -1
  %st_mode = getelementptr inbounds i8, ptr %st, i64 24
  %0 = load i32, ptr %st_mode, align 8
  %and = and i32 %0, 61440
  %cmp2 = icmp eq i32 %and, 16384
  %1 = select i1 %cmp, i1 %cmp2, i1 false
  ret i1 %1
}